; Function Attrs: mustprogress uwtable
define noundef ptr @_ZNK4LIEF5MachO14FilesetCommand5cloneEv(ptr noundef nonnull align 8 dereferenceable(112) %0) unnamed_addr #0 align 2 personality ptr @__gxx_personality_v0 {
  %2 = tail call noalias noundef nonnull dereferenceable(112) ptr @_Znwm(i64 noundef 112) #12
  invoke void @_ZN4LIEF5MachO14FilesetCommandC1ERKS1_(ptr noundef nonnull align 8 dereferenceable(112) %2, ptr noundef nonnull align 8 dereferenceable(112) %0)
          to label %3 unwind label %4

3:                                                ; preds = %1
  ret ptr %2

4:                                                ; preds = %1
  %5 = landingpad { ptr, i32 }
          cleanup
  tail call void @_ZdlPv(ptr noundef nonnull %2) #11
  resume { ptr, i32 } %5
}